target datalayout = "e-m:e-p270:32:32-p271:32:32-p272:64:64-i64:64-i128:128-f80:128-n8:16:32:64-S128"
target triple = "x86_64-pc-linux-gnu"

%struct.DdManager = type { %struct.DdNode, ptr, ptr, ptr, ptr, ptr, ptr, ptr, i32, i32, double, double, double, i32, i32, i32, i32, i32, i32, ptr, ptr, %struct.DdSubtable, i32, i32, i32, i32, i32, i32, i32, double, i32, i32, i32, ptr, i64, double, i32, ptr, ptr, ptr, ptr, ptr, ptr, ptr, i32, ptr, ptr, ptr, ptr, ptr, ptr, i32, i32, i32, double, i32, i32, i32, i32, double, double, i32, i32, i32, i32, i32, i32, i32, i32, i32, ptr, ptr, i32, i32, i32, i32, i32, i32, ptr, ptr, ptr, ptr, ptr, ptr, ptr, ptr, i32, i64, i64, i64, i32, i64, i64, double, double, double, double, double, double, i32, ptr, ptr, i64 }
%struct.DdNode = type { i32, i32, ptr, %union.anon, i64 }
%union.anon = type { %struct.DdChildren }
%struct.DdChildren = type { ptr, ptr }
%struct.DdSubtable = type { ptr, i32, i32, i32, i32, i32, i32, i32, i32, i32, i32, i32 }

; Function Attrs: nounwind uwtable
define internal ptr @createResult(ptr noundef %0, i32 noundef %1, i32 noundef %2, ptr noundef %3, double noundef %4) #0 {
  %6 = alloca ptr, align 8
  %7 = alloca ptr, align 8
  %8 = alloca i32, align 4
  %9 = alloca i32, align 4
  %10 = alloca ptr, align 8
  %11 = alloca double, align 8
  %12 = alloca ptr, align 8
  %13 = alloca ptr, align 8
  store ptr %0, ptr %7, align 8
  store i32 %1, ptr %8, align 4
  store i32 %2, ptr %9, align 4
  store ptr %3, ptr %10, align 8
  store double %4, ptr %11, align 8
  %14 = load i32, ptr %8, align 4
  %15 = icmp eq i32 %14, 2147483647
  br i1 %15, label %16, label %26

16:                                               ; preds = %5
  %17 = load ptr, ptr %10, align 8
  %18 = ptrtoint ptr %17 to i64
  %19 = and i64 %18, -2
  %20 = inttoptr i64 %19 to ptr
  %21 = getelementptr inbounds %struct.DdNode, ptr %20, i32 0, i32 0
  %22 = load i32, ptr %21, align 8
  %23 = icmp eq i32 %22, 2147483647
  br i1 %23, label %24, label %26

24:                                               ; preds = %16
  %25 = load ptr, ptr %10, align 8
  store ptr %25, ptr %6, align 8
  br label %107

26:                                               ; preds = %16, %5
  %27 = load ptr, ptr %7, align 8
  %28 = load double, ptr %11, align 8
  %29 = fneg double %28
  %30 = call ptr @cuddUniqueConst(ptr noundef %27, double noundef %29)
  store ptr %30, ptr %13, align 8
  %31 = load ptr, ptr %13, align 8
  %32 = icmp eq ptr %31, null
  br i1 %32, label %33, label %34

33:                                               ; preds = %26
  store ptr null, ptr %6, align 8
  br label %107

34:                                               ; preds = %26
  %35 = load ptr, ptr %13, align 8
  %36 = ptrtoint ptr %35 to i64
  %37 = and i64 %36, -2
  %38 = inttoptr i64 %37 to ptr
  %39 = getelementptr inbounds %struct.DdNode, ptr %38, i32 0, i32 1
  %40 = load i32, ptr %39, align 4
  %41 = add i32 %40, 1
  store i32 %41, ptr %39, align 4
  %42 = load i32, ptr %8, align 4
  %43 = icmp eq i32 %42, 2147483647
  br i1 %43, label %44, label %76

44:                                               ; preds = %34
  %45 = load ptr, ptr %10, align 8
  %46 = getelementptr inbounds %struct.DdNode, ptr %45, i32 0, i32 3
  %47 = getelementptr inbounds %struct.DdChildren, ptr %46, i32 0, i32 0
  %48 = load ptr, ptr %47, align 8
  %49 = load ptr, ptr %7, align 8
  %50 = getelementptr inbounds %struct.DdManager, ptr %49, i32 0, i32 2
  %51 = load ptr, ptr %50, align 8
  %52 = icmp eq ptr %48, %51
  br i1 %52, label %53, label %64

53:                                               ; preds = %44
  %54 = load ptr, ptr %7, align 8
  %55 = load ptr, ptr %10, align 8
  %56 = getelementptr inbounds %struct.DdNode, ptr %55, i32 0, i32 0
  %57 = load i32, ptr %56, align 8
  %58 = load ptr, ptr %13, align 8
  %59 = load ptr, ptr %10, align 8
  %60 = getelementptr inbounds %struct.DdNode, ptr %59, i32 0, i32 3
  %61 = getelementptr inbounds %struct.DdChildren, ptr %60, i32 0, i32 1
  %62 = load ptr, ptr %61, align 8
  %63 = call ptr @cuddUniqueInter(ptr noundef %54, i32 noundef %57, ptr noundef %58, ptr noundef %62)
  store ptr %63, ptr %12, align 8
  br label %75

64:                                               ; preds = %44
  %65 = load ptr, ptr %7, align 8
  %66 = load ptr, ptr %10, align 8
  %67 = getelementptr inbounds %struct.DdNode, ptr %66, i32 0, i32 0
  %68 = load i32, ptr %67, align 8
  %69 = load ptr, ptr %10, align 8
  %70 = getelementptr inbounds %struct.DdNode, ptr %69, i32 0, i32 3
  %71 = getelementptr inbounds %struct.DdChildren, ptr %70, i32 0, i32 0
  %72 = load ptr, ptr %71, align 8
  %73 = load ptr, ptr %13, align 8
  %74 = call ptr @cuddUniqueInter(ptr noundef %65, i32 noundef %68, ptr noundef %72, ptr noundef %73)
  store ptr %74, ptr %12, align 8
  br label %75

75:                                               ; preds = %64, %53
  br label %92

76:                                               ; preds = %34
  %77 = load i32, ptr %9, align 4
  %78 = icmp ne i32 %77, 0
  br i1 %78, label %79, label %85

79:                                               ; preds = %76
  %80 = load ptr, ptr %7, align 8
  %81 = load i32, ptr %8, align 4
  %82 = load ptr, ptr %10, align 8
  %83 = load ptr, ptr %13, align 8
  %84 = call ptr @cuddUniqueInter(ptr noundef %80, i32 noundef %81, ptr noundef %82, ptr noundef %83)
  store ptr %84, ptr %12, align 8
  br label %91

85:                                               ; preds = %76
  %86 = load ptr, ptr %7, align 8
  %87 = load i32, ptr %8, align 4
  %88 = load ptr, ptr %13, align 8
  %89 = load ptr, ptr %10, align 8
  %90 = call ptr @cuddUniqueInter(ptr noundef %86, i32 noundef %87, ptr noundef %88, ptr noundef %89)
  store ptr %90, ptr %12, align 8
  br label %91

91:                                               ; preds = %85, %79
  br label %92

92:                                               ; preds = %91, %75
  %93 = load ptr, ptr %12, align 8
  %94 = icmp eq ptr %93, null
  br i1 %94, label %95, label %98

95:                                               ; preds = %92
  %96 = load ptr, ptr %7, align 8
  %97 = load ptr, ptr %13, align 8
  call void @Cudd_RecursiveDeref(ptr noundef %96, ptr noundef %97)
  store ptr null, ptr %6, align 8
  br label %107

98:                                               ; preds = %92
  %99 = load ptr, ptr %13, align 8
  %100 = ptrtoint ptr %99 to i64
  %101 = and i64 %100, -2
  %102 = inttoptr i64 %101 to ptr
  %103 = getelementptr inbounds %struct.DdNode, ptr %102, i32 0, i32 1
  %104 = load i32, ptr %103, align 4
  %105 = add i32 %104, -1
  store i32 %105, ptr %103, align 4
  %106 = load ptr, ptr %12, align 8
  store ptr %106, ptr %6, align 8
  br label %107

107:                                              ; preds = %98, %95, %33, %24
  %108 = load ptr, ptr %6, align 8
  ret ptr %108
}