; Function Attrs: nounwind uwtable
define internal fastcc ptr @createResult(ptr noundef %0, i32 noundef %1, i32 noundef range(i32 0, 2) %2, ptr noundef %3, double noundef %4) unnamed_addr #0 {
  %6 = icmp eq i32 %1, 2147483647
  br i1 %6, label %7, label %13

7:                                                ; preds = %5
  %8 = ptrtoint ptr %3 to i64
  %9 = and i64 %8, -2
  %10 = inttoptr i64 %9 to ptr
  %11 = load i32, ptr %10, align 8
  %12 = icmp eq i32 %11, 2147483647
  br i1 %12, label %48, label %13

13:                                               ; preds = %7, %5
  %14 = fneg double %4
  %15 = tail call ptr @cuddUniqueConst(ptr noundef %0, double noundef %14) #6
  %16 = icmp eq ptr %15, null
  br i1 %16, label %48, label %17

17:                                               ; preds = %13
  %18 = ptrtoint ptr %15 to i64
  %19 = and i64 %18, -2
  %20 = inttoptr i64 %19 to ptr
  %21 = getelementptr inbounds nuw i8, ptr %20, i64 4
  %22 = load i32, ptr %21, align 4
  %23 = add i32 %22, 1
  store i32 %23, ptr %21, align 4
  br i1 %6, label %24, label %37

24:                                               ; preds = %17
  %25 = getelementptr inbounds nuw i8, ptr %3, i64 16
  %26 = load ptr, ptr %25, align 8
  %27 = getelementptr inbounds nuw i8, ptr %0, i64 48
  %28 = load ptr, ptr %27, align 8
  %29 = icmp eq ptr %26, %28
  %30 = load i32, ptr %3, align 8
  br i1 %29, label %31, label %35

31:                                               ; preds = %24
  %32 = getelementptr inbounds nuw i8, ptr %3, i64 24
  %33 = load ptr, ptr %32, align 8
  %34 = tail call ptr @cuddUniqueInter(ptr noundef nonnull %0, i32 noundef %30, ptr noundef nonnull %15, ptr noundef %33) #6
  br label %42

35:                                               ; preds = %24
  %36 = tail call ptr @cuddUniqueInter(ptr noundef nonnull %0, i32 noundef %30, ptr noundef %26, ptr noundef nonnull %15) #6
  br label %42

37:                                               ; preds = %17
  %.not = icmp eq i32 %2, 0
  br i1 %.not, label %40, label %38

38:                                               ; preds = %37
  %39 = tail call ptr @cuddUniqueInter(ptr noundef %0, i32 noundef %1, ptr noundef %3, ptr noundef nonnull %15) #6
  br label %42

40:                                               ; preds = %37
  %41 = tail call ptr @cuddUniqueInter(ptr noundef %0, i32 noundef %1, ptr noundef nonnull %15, ptr noundef %3) #6
  br label %42

42:                                               ; preds = %38, %40, %31, %35
  %.032 = phi ptr [ %34, %31 ], [ %36, %35 ], [ %39, %38 ], [ %41, %40 ]
  %43 = icmp eq ptr %.032, null
  br i1 %43, label %44, label %45

44:                                               ; preds = %42
  tail call void @Cudd_RecursiveDeref(ptr noundef %0, ptr noundef nonnull %15) #6
  br label %48

45:                                               ; preds = %42
  %46 = load i32, ptr %21, align 4
  %47 = add i32 %46, -1
  store i32 %47, ptr %21, align 4
  br label %48

48:                                               ; preds = %13, %7, %45, %44
  %.0 = phi ptr [ null, %44 ], [ %.032, %45 ], [ %3, %7 ], [ null, %13 ]
  ret ptr %.0
}